; Function Attrs: mustprogress nofree norecurse nosync nounwind willreturn memory(argmem: readwrite) uwtable
define hidden noundef ptr @_Z36pj_projection_specific_setup_calcofiP8PJconsts(ptr noundef returned initializes((88, 96), (104, 120), (168, 176), (184, 192), (344, 348), (440, 448), (456, 472)) %0) local_unnamed_addr #1 {
  %2 = getelementptr inbounds nuw i8, ptr %0, i64 88
  store ptr null, ptr %2, align 8, !tbaa !3
  %3 = getelementptr inbounds nuw i8, ptr %0, i64 440
  store double 0.000000e+00, ptr %3, align 8, !tbaa !36
  %4 = getelementptr inbounds nuw i8, ptr %0, i64 184
  store double 1.000000e+00, ptr %4, align 8, !tbaa !37
  %5 = getelementptr inbounds nuw i8, ptr %0, i64 168
  store double 1.000000e+00, ptr %5, align 8, !tbaa !38
  %6 = getelementptr inbounds nuw i8, ptr %0, i64 456
  %7 = getelementptr inbounds nuw i8, ptr %0, i64 344
  tail call void @llvm.memset.p0.i64(ptr noundef nonnull align 8 dereferenceable(16) %6, i8 0, i64 16, i1 false)
  store i32 1, ptr %7, align 8, !tbaa !39
  %8 = getelementptr inbounds nuw i8, ptr %0, i64 216
  %9 = load double, ptr %8, align 8, !tbaa !40
  %10 = fcmp une double %9, 0.000000e+00
  %_ZL17calcofi_s_inverse5PJ_XYP8PJconsts.sink = select i1 %10, ptr @_ZL17calcofi_e_inverse5PJ_XYP8PJconsts, ptr @_ZL17calcofi_s_inverse5PJ_XYP8PJconsts
  %_ZL17calcofi_s_forward5PJ_LPP8PJconsts.sink = select i1 %10, ptr @_ZL17calcofi_e_forward5PJ_LPP8PJconsts, ptr @_ZL17calcofi_s_forward5PJ_LPP8PJconsts
  %11 = getelementptr inbounds nuw i8, ptr %0, i64 112
  store ptr %_ZL17calcofi_s_inverse5PJ_XYP8PJconsts.sink, ptr %11, align 8, !tbaa !41
  %12 = getelementptr inbounds nuw i8, ptr %0, i64 104
  store ptr %_ZL17calcofi_s_forward5PJ_LPP8PJconsts.sink, ptr %12, align 8, !tbaa !42
  ret ptr %0
}